ccopy_reg
_reconstructor
p0
(cnltk.classify.naivebayes
NaiveBayesClassifier
p1
c__builtin__
object
p2
Ntp3
Rp4
(dp5
S'_labels'
p6
(lp7
S'obj'
p8
aS'subj'
p9
asS'_feature_probdist'
p10
(dp11
(g9
S'contains(.)'
p12
tp13
g0
(cnltk.probability
ELEProbDist
p14
g2
Ntp15
Rp16
(dp17
S'_gamma'
p18
F0.5
sS'_N'
p19
I80
sS'_freqdist'
p20
cnltk.probability
FreqDist
p21
((dp22
I01
I80
stp23
Rp24
sS'_bins'
p25
I2
sS'_divisor'
p26
F81.0
sbs(g8
S'contains(but)'
p27
tp28
g0
(g14
g2
Ntp29
Rp30
(dp31
g18
F0.5
sg19
I80
sg20
g21
((dp32
I00
I74
sI01
I6
stp33
Rp34
sg25
I2
sg26
F81.0
sbs(g9
S'contains(--)'
p35
tp36
g0
(g14
g2
Ntp37
Rp38
(dp39
g18
F0.5
sg19
I80
sg20
g21
((dp40
I00
I76
sI01
I4
stp41
Rp42
sg25
I2
sg26
F81.0
sbs(g8
S'contains(for)'
p43
tp44
g0
(g14
g2
Ntp45
Rp46
(dp47
g18
F0.5
sg19
I80
sg20
g21
((dp48
I00
I67
sI01
I13
stp49
Rp50
sg25
I2
sg26
F81.0
sbs(g8
S'contains(out)'
p51
tp52
g0
(g14
g2
Ntp53
Rp54
(dp55
g18
F0.5
sg19
I80
sg20
g21
((dp56
I00
I74
sI01
I6
stp57
Rp58
sg25
I2
sg26
F81.0
sbs(g9
S'contains(life)'
p59
tp60
g0
(g14
g2
Ntp61
Rp62
(dp63
g18
F0.5
sg19
I80
sg20
g21
((dp64
I00
I78
sI01
I2
stp65
Rp66
sg25
I2
sg26
F81.0
sbs(g9
S'contains(one)'
p67
tp68
g0
(g14
g2
Ntp69
Rp70
(dp71
g18
F0.5
sg19
I80
sg20
g21
((dp72
I00
I71
sI01
I9
stp73
Rp74
sg25
I2
sg26
F81.0
sbs(g9
S'contains(the)'
p75
tp76
g0
(g14
g2
Ntp77
Rp78
(dp79
g18
F0.5
sg19
I80
sg20
g21
((dp80
I00
I27
sI01
I53
stp81
Rp82
sg25
I2
sg26
F81.0
sbs(g8
S'contains(home)'
p83
tp84
g0
(g14
g2
Ntp85
Rp86
(dp87
g18
F0.5
sg19
I80
sg20
g21
((dp88
I00
I76
sI01
I4
stp89
Rp90
sg25
I2
sg26
F81.0
sbs(g9
S'contains(own)'
p91
tp92
g0
(g14
g2
Ntp93
Rp94
(dp95
g18
F0.5
sg19
I80
sg20
g21
((dp96
I00
I78
sI01
I2
stp97
Rp98
sg25
I2
sg26
F81.0
sbs(g9
S'contains(it)'
p99
tp100
g0
(g14
g2
Ntp101
Rp102
(dp103
g18
F0.5
sg19
I80
sg20
g21
((dp104
I00
I57
sI01
I23
stp105
Rp106
sg25
I2
sg26
F81.0
sbs(g9
S'contains(much)'
p107
tp108
g0
(g14
g2
Ntp109
Rp110
(dp111
g18
F0.5
sg19
I80
sg20
g21
((dp112
I00
I77
sI01
I3
stp113
Rp114
sg25
I2
sg26
F81.0
sbs(g9
S'contains(some)'
p115
tp116
g0
(g14
g2
Ntp117
Rp118
(dp119
g18
F0.5
sg19
I80
sg20
g21
((dp120
I00
I77
sI01
I3
stp121
Rp122
sg25
I2
sg26
F81.0
sbs(g8
S'contains(who)'
p123
tp124
g0
(g14
g2
Ntp125
Rp126
(dp127
g18
F0.5
sg19
I80
sg20
g21
((dp128
I00
I69
sI01
I11
stp129
Rp130
sg25
I2
sg26
F81.0
sbs(g9
S'contains(search)'
p131
tp132
g0
(g14
g2
Ntp133
Rp134
(dp135
g18
F0.5
sg19
I80
sg20
g21
((dp136
I00
I80
stp137
Rp138
sg25
I2
sg26
F81.0
sbs(g8
S'contains(most)'
p139
tp140
g0
(g14
g2
Ntp141
Rp142
(dp143
g18
F0.5
sg19
I80
sg20
g21
((dp144
I00
I80
stp145
Rp146
sg25
I2
sg26
F81.0
sbs(g8
S'contains())'
p147
tp148
g0
(g14
g2
Ntp149
Rp150
(dp151
g18
F0.5
sg19
I80
sg20
g21
((dp152
I00
I75
sI01
I5
stp153
Rp154
sg25
I2
sg26
F81.0
sbs(g9
S'contains(who)'
p155
tp156
g0
(g14
g2
Ntp157
Rp158
(dp159
g18
F0.5
sg19
I80
sg20
g21
((dp160
I00
I73
sI01
I7
stp161
Rp162
sg25
I2
sg26
F81.0
sbs(g9
S'contains(made)'
p163
tp164
g0
(g14
g2
Ntp165
Rp166
(dp167
g18
F0.5
sg19
I80
sg20
g21
((dp168
I00
I78
sI01
I2
stp169
Rp170
sg25
I2
sg26
F81.0
sbs(g8
S"contains(it's)"
p171
tp172
g0
(g14
g2
Ntp173
Rp174
(dp175
g18
F0.5
sg19
I80
sg20
g21
((dp176
I00
I80
stp177
Rp178
sg25
I2
sg26
F81.0
sbs(g9
S'contains(:)'
p179
tp180
g0
(g14
g2
Ntp181
Rp182
(dp183
g18
F0.5
sg19
I80
sg20
g21
((dp184
I00
I78
sI01
I2
stp185
Rp186
sg25
I2
sg26
F81.0
sbs(g8
S'contains(like)'
p187
tp188
g0
(g14
g2
Ntp189
Rp190
(dp191
g18
F0.5
sg19
I80
sg20
g21
((dp192
I00
I78
sI01
I2
stp193
Rp194
sg25
I2
sg26
F81.0
sbs(g8
S'contains(will)'
p195
tp196
g0
(g14
g2
Ntp197
Rp198
(dp199
g18
F0.5
sg19
I80
sg20
g21
((dp200
I00
I76
sI01
I4
stp201
Rp202
sg25
I2
sg26
F81.0
sbs(g8
S'contains(one)'
p203
tp204
g0
(g14
g2
Ntp205
Rp206
(dp207
g18
F0.5
sg19
I80
sg20
g21
((dp208
I00
I75
sI01
I5
stp209
Rp210
sg25
I2
sg26
F81.0
sbs(g9
S'contains(so)'
p211
tp212
g0
(g14
g2
Ntp213
Rp214
(dp215
g18
F0.5
sg19
I80
sg20
g21
((dp216
I00
I76
sI01
I4
stp217
Rp218
sg25
I2
sg26
F81.0
sbs(g9
S'contains(a)'
p219
tp220
g0
(g14
g2
Ntp221
Rp222
(dp223
g18
F0.5
sg19
I80
sg20
g21
((dp224
I00
I34
sI01
I46
stp225
Rp226
sg25
I2
sg26
F81.0
sbs(g9
S'contains(on)'
p227
tp228
g0
(g14
g2
Ntp229
Rp230
(dp231
g18
F0.5
sg19
I80
sg20
g21
((dp232
I00
I75
sI01
I5
stp233
Rp234
sg25
I2
sg26
F81.0
sbs(g8
S'contains(than)'
p235
tp236
g0
(g14
g2
Ntp237
Rp238
(dp239
g18
F0.5
sg19
I80
sg20
g21
((dp240
I00
I78
sI01
I2
stp241
Rp242
sg25
I2
sg26
F81.0
sbs(g8
S'contains(.)'
p243
tp244
g0
(g14
g2
Ntp245
Rp246
(dp247
g18
F0.5
sg19
I80
sg20
g21
((dp248
I00
I3
sI01
I77
stp249
Rp250
sg25
I2
sg26
F81.0
sbs(g8
S'contains(search)'
p251
tp252
g0
(g14
g2
Ntp253
Rp254
(dp255
g18
F0.5
sg19
I80
sg20
g21
((dp256
I00
I74
sI01
I6
stp257
Rp258
sg25
I2
sg26
F81.0
sbs(g9
S'contains(begins)'
p259
tp260
g0
(g14
g2
Ntp261
Rp262
(dp263
g18
F0.5
sg19
I80
sg20
g21
((dp264
I00
I79
sI01
I1
stp265
Rp266
sg25
I2
sg26
F81.0
sbs(g9
S'contains(movie)'
p267
tp268
g0
(g14
g2
Ntp269
Rp270
(dp271
g18
F0.5
sg19
I80
sg20
g21
((dp272
I00
I71
sI01
I9
stp273
Rp274
sg25
I2
sg26
F81.0
sbs(g8
S'contains(make)'
p275
tp276
g0
(g14
g2
Ntp277
Rp278
(dp279
g18
F0.5
sg19
I80
sg20
g21
((dp280
I00
I79
sI01
I1
stp281
Rp282
sg25
I2
sg26
F81.0
sbs(g8
S'contains(the)'
p283
tp284
g0
(g14
g2
Ntp285
Rp286
(dp287
g18
F0.5
sg19
I80
sg20
g21
((dp288
I00
I25
sI01
I55
stp289
Rp290
sg25
I2
sg26
F81.0
sbs(g8
S'contains(by)'
p291
tp292
g0
(g14
g2
Ntp293
Rp294
(dp295
g18
F0.5
sg19
I80
sg20
g21
((dp296
I00
I68
sI01
I12
stp297
Rp298
sg25
I2
sg26
F81.0
sbs(g9
S'contains(love)'
p299
tp300
g0
(g14
g2
Ntp301
Rp302
(dp303
g18
F0.5
sg19
I80
sg20
g21
((dp304
I00
I78
sI01
I2
stp305
Rp306
sg25
I2
sg26
F81.0
sbs(g8
S'contains(an)'
p307
tp308
g0
(g14
g2
Ntp309
Rp310
(dp311
g18
F0.5
sg19
I80
sg20
g21
((dp312
I00
I64
sI01
I16
stp313
Rp314
sg25
I2
sg26
F81.0
sbs(g9
S'contains(for)'
p315
tp316
g0
(g14
g2
Ntp317
Rp318
(dp319
g18
F0.5
sg19
I80
sg20
g21
((dp320
I00
I70
sI01
I10
stp321
Rp322
sg25
I2
sg26
F81.0
sbs(g8
S'contains(with)'
p323
tp324
g0
(g14
g2
Ntp325
Rp326
(dp327
g18
F0.5
sg19
I80
sg20
g21
((dp328
I00
I60
sI01
I20
stp329
Rp330
sg25
I2
sg26
F81.0
sbs(g8
S'contains(his)'
p331
tp332
g0
(g14
g2
Ntp333
Rp334
(dp335
g18
F0.5
sg19
I80
sg20
g21
((dp336
I00
I64
sI01
I16
stp337
Rp338
sg25
I2
sg26
F81.0
sbs(g8
S'contains(movie)'
p339
tp340
g0
(g14
g2
Ntp341
Rp342
(dp343
g18
F0.5
sg19
I80
sg20
g21
((dp344
I00
I77
sI01
I3
stp345
Rp346
sg25
I2
sg26
F81.0
sbs(g8
S'contains(their)'
p347
tp348
g0
(g14
g2
Ntp349
Rp350
(dp351
g18
F0.5
sg19
I80
sg20
g21
((dp352
I00
I70
sI01
I10
stp353
Rp354
sg25
I2
sg26
F81.0
sbs(g9
S'contains(from)'
p355
tp356
g0
(g14
g2
Ntp357
Rp358
(dp359
g18
F0.5
sg19
I80
sg20
g21
((dp360
I00
I74
sI01
I6
stp361
Rp362
sg25
I2
sg26
F81.0
sbs(g9
S'contains(in)'
p363
tp364
g0
(g14
g2
Ntp365
Rp366
(dp367
g18
F0.5
sg19
I80
sg20
g21
((dp368
I00
I60
sI01
I20
stp369
Rp370
sg25
I2
sg26
F81.0
sbs(g8
S'contains(()'
p371
tp372
g0
(g14
g2
Ntp373
Rp374
(dp375
g18
F0.5
sg19
I80
sg20
g21
((dp376
I00
I75
sI01
I5
stp377
Rp378
sg25
I2
sg26
F81.0
sbs(g8
S'contains(is)'
p379
tp380
g0
(g14
g2
Ntp381
Rp382
(dp383
g18
F0.5
sg19
I80
sg20
g21
((dp384
I00
I56
sI01
I24
stp385
Rp386
sg25
I2
sg26
F81.0
sbs(g8
S'contains(not)'
p387
tp388
g0
(g14
g2
Ntp389
Rp390
(dp391
g18
F0.5
sg19
I80
sg20
g21
((dp392
I00
I75
sI01
I5
stp393
Rp394
sg25
I2
sg26
F81.0
sbs(g8
S'contains(about)'
p395
tp396
g0
(g14
g2
Ntp397
Rp398
(dp399
g18
F0.5
sg19
I80
sg20
g21
((dp400
I00
I75
sI01
I5
stp401
Rp402
sg25
I2
sg26
F81.0
sbs(g9
S'contains(and)'
p403
tp404
g0
(g14
g2
Ntp405
Rp406
(dp407
g18
F0.5
sg19
I80
sg20
g21
((dp408
I00
I43
sI01
I37
stp409
Rp410
sg25
I2
sg26
F81.0
sbs(g8
S'contains(which)'
p411
tp412
g0
(g14
g2
Ntp413
Rp414
(dp415
g18
F0.5
sg19
I80
sg20
g21
((dp416
I00
I76
sI01
I4
stp417
Rp418
sg25
I2
sg26
F81.0
sbs(g9
S'contains(like)'
p419
tp420
g0
(g14
g2
Ntp421
Rp422
(dp423
g18
F0.5
sg19
I80
sg20
g21
((dp424
I00
I74
sI01
I6
stp425
Rp426
sg25
I2
sg26
F81.0
sbs(g8
S'contains(that)'
p427
tp428
g0
(g14
g2
Ntp429
Rp430
(dp431
g18
F0.5
sg19
I80
sg20
g21
((dp432
I00
I69
sI01
I11
stp433
Rp434
sg25
I2
sg26
F81.0
sbs(g9
S'contains(she)'
p435
tp436
g0
(g14
g2
Ntp437
Rp438
(dp439
g18
F0.5
sg19
I80
sg20
g21
((dp440
I00
I79
sI01
I1
stp441
Rp442
sg25
I2
sg26
F81.0
sbs(g9
S"contains(it's)"
p443
tp444
g0
(g14
g2
Ntp445
Rp446
(dp447
g18
F0.5
sg19
I80
sg20
g21
((dp448
I00
I74
sI01
I6
stp449
Rp450
sg25
I2
sg26
F81.0
sbs(g9
S'contains(to)'
p451
tp452
g0
(g14
g2
Ntp453
Rp454
(dp455
g18
F0.5
sg19
I80
sg20
g21
((dp456
I00
I46
sI01
I34
stp457
Rp458
sg25
I2
sg26
F81.0
sbs(g9
S'contains(they)'
p459
tp460
g0
(g14
g2
Ntp461
Rp462
(dp463
g18
F0.5
sg19
I80
sg20
g21
((dp464
I00
I80
stp465
Rp466
sg25
I2
sg26
F81.0
sbs(g9
S'contains(most)'
p467
tp468
g0
(g14
g2
Ntp469
Rp470
(dp471
g18
F0.5
sg19
I80
sg20
g21
((dp472
I00
I74
sI01
I6
stp473
Rp474
sg25
I2
sg26
F81.0
sbs(g9
S'contains(them)'
p475
tp476
g0
(g14
g2
Ntp477
Rp478
(dp479
g18
F0.5
sg19
I80
sg20
g21
((dp480
I00
I80
stp481
Rp482
sg25
I2
sg26
F81.0
sbs(g9
S'contains(at)'
p483
tp484
g0
(g14
g2
Ntp485
Rp486
(dp487
g18
F0.5
sg19
I80
sg20
g21
((dp488
I00
I73
sI01
I7
stp489
Rp490
sg25
I2
sg26
F81.0
sbs(g9
S'contains(even)'
p491
tp492
g0
(g14
g2
Ntp493
Rp494
(dp495
g18
F0.5
sg19
I80
sg20
g21
((dp496
I00
I73
sI01
I7
stp497
Rp498
sg25
I2
sg26
F81.0
sbs(g9
S'contains(home)'
p499
tp500
g0
(g14
g2
Ntp501
Rp502
(dp503
g18
F0.5
sg19
I80
sg20
g21
((dp504
I00
I78
sI01
I2
stp505
Rp506
sg25
I2
sg26
F81.0
sbs(g9
S'contains(with)'
p507
tp508
g0
(g14
g2
Ntp509
Rp510
(dp511
g18
F0.5
sg19
I80
sg20
g21
((dp512
I00
I68
sI01
I12
stp513
Rp514
sg25
I2
sg26
F81.0
sbs(g8
S'contains(him)'
p515
tp516
g0
(g14
g2
Ntp517
Rp518
(dp519
g18
F0.5
sg19
I80
sg20
g21
((dp520
I00
I76
sI01
I4
stp521
Rp522
sg25
I2
sg26
F81.0
sbs(g9
S'contains(when)'
p523
tp524
g0
(g14
g2
Ntp525
Rp526
(dp527
g18
F0.5
sg19
I80
sg20
g21
((dp528
I00
I75
sI01
I5
stp529
Rp530
sg25
I2
sg26
F81.0
sbs(g8
S'contains(story)'
p531
tp532
g0
(g14
g2
Ntp533
Rp534
(dp535
g18
F0.5
sg19
I80
sg20
g21
((dp536
I00
I73
sI01
I7
stp537
Rp538
sg25
I2
sg26
F81.0
sbs(g8
S'contains(begins)'
p539
tp540
g0
(g14
g2
Ntp541
Rp542
(dp543
g18
F0.5
sg19
I80
sg20
g21
((dp544
I00
I76
sI01
I4
stp545
Rp546
sg25
I2
sg26
F81.0
sbs(g9
S'contains(story)'
p547
tp548
g0
(g14
g2
Ntp549
Rp550
(dp551
g18
F0.5
sg19
I80
sg20
g21
((dp552
I00
I77
sI01
I3
stp553
Rp554
sg25
I2
sg26
F81.0
sbs(g8
S'contains(up)'
p555
tp556
g0
(g14
g2
Ntp557
Rp558
(dp559
g18
F0.5
sg19
I80
sg20
g21
((dp560
I00
I74
sI01
I6
stp561
Rp562
sg25
I2
sg26
F81.0
sbs(g9
S'contains(has)'
p563
tp564
g0
(g14
g2
Ntp565
Rp566
(dp567
g18
F0.5
sg19
I80
sg20
g21
((dp568
I00
I76
sI01
I4
stp569
Rp570
sg25
I2
sg26
F81.0
sbs(g8
S'contains(a)'
p571
tp572
g0
(g14
g2
Ntp573
Rp574
(dp575
g18
F0.5
sg19
I80
sg20
g21
((dp576
I00
I36
sI01
I44
stp577
Rp578
sg25
I2
sg26
F81.0
sbs(g9
S'contains(of)'
p579
tp580
g0
(g14
g2
Ntp581
Rp582
(dp583
g18
F0.5
sg19
I80
sg20
g21
((dp584
I00
I47
sI01
I33
stp585
Rp586
sg25
I2
sg26
F81.0
sbs(g9
S'contains(through)'
p587
tp588
g0
(g14
g2
Ntp589
Rp590
(dp591
g18
F0.5
sg19
I80
sg20
g21
((dp592
I00
I76
sI01
I4
stp593
Rp594
sg25
I2
sg26
F81.0
sbs(g9
S'contains(film)'
p595
tp596
g0
(g14
g2
Ntp597
Rp598
(dp599
g18
F0.5
sg19
I80
sg20
g21
((dp600
I00
I69
sI01
I11
stp601
Rp602
sg25
I2
sg26
F81.0
sbs(g9
S'contains(,)'
p603
tp604
g0
(g14
g2
Ntp605
Rp606
(dp607
g18
F0.5
sg19
I80
sg20
g21
((dp608
I00
I31
sI01
I49
stp609
Rp610
sg25
I2
sg26
F81.0
sbs(g8
S'contains(of)'
p611
tp612
g0
(g14
g2
Ntp613
Rp614
(dp615
g18
F0.5
sg19
I80
sg20
g21
((dp616
I00
I45
sI01
I35
stp617
Rp618
sg25
I2
sg26
F81.0
sbs(g9
S'contains(as)'
p619
tp620
g0
(g14
g2
Ntp621
Rp622
(dp623
g18
F0.5
sg19
I80
sg20
g21
((dp624
I00
I72
sI01
I8
stp625
Rp626
sg25
I2
sg26
F81.0
sbs(g9
S'contains(up)'
p627
tp628
g0
(g14
g2
Ntp629
Rp630
(dp631
g18
F0.5
sg19
I80
sg20
g21
((dp632
I00
I79
sI01
I1
stp633
Rp634
sg25
I2
sg26
F81.0
sbs(g8
S'contains(;)'
p635
tp636
g0
(g14
g2
Ntp637
Rp638
(dp639
g18
F0.5
sg19
I80
sg20
g21
((dp640
I00
I74
sI01
I6
stp641
Rp642
sg25
I2
sg26
F81.0
sbs(g8
S'contains(them)'
p643
tp644
g0
(g14
g2
Ntp645
Rp646
(dp647
g18
F0.5
sg19
I80
sg20
g21
((dp648
I00
I75
sI01
I5
stp649
Rp650
sg25
I2
sg26
F81.0
sbs(g9
S"contains(there's)"
p651
tp652
g0
(g14
g2
Ntp653
Rp654
(dp655
g18
F0.5
sg19
I80
sg20
g21
((dp656
I00
I75
sI01
I5
stp657
Rp658
sg25
I2
sg26
F81.0
sbs(g8
S'contains(have)'
p659
tp660
g0
(g14
g2
Ntp661
Rp662
(dp663
g18
F0.5
sg19
I80
sg20
g21
((dp664
I00
I76
sI01
I4
stp665
Rp666
sg25
I2
sg26
F81.0
sbs(g8
S'contains(both)'
p667
tp668
g0
(g14
g2
Ntp669
Rp670
(dp671
g18
F0.5
sg19
I80
sg20
g21
((dp672
I00
I79
sI01
I1
stp673
Rp674
sg25
I2
sg26
F81.0
sbs(g9
S'contains())'
p675
tp676
g0
(g14
g2
Ntp677
Rp678
(dp679
g18
F0.5
sg19
I80
sg20
g21
((dp680
I00
I77
sI01
I3
stp681
Rp682
sg25
I2
sg26
F81.0
sbs(g9
S'contains(you)'
p683
tp684
g0
(g14
g2
Ntp685
Rp686
(dp687
g18
F0.5
sg19
I80
sg20
g21
((dp688
I00
I72
sI01
I8
stp689
Rp690
sg25
I2
sg26
F81.0
sbs(g9
S'contains(that)'
p691
tp692
g0
(g14
g2
Ntp693
Rp694
(dp695
g18
F0.5
sg19
I80
sg20
g21
((dp696
I00
I63
sI01
I17
stp697
Rp698
sg25
I2
sg26
F81.0
sbs(g9
S'contains(him)'
p699
tp700
g0
(g14
g2
Ntp701
Rp702
(dp703
g18
F0.5
sg19
I80
sg20
g21
((dp704
I00
I79
sI01
I1
stp705
Rp706
sg25
I2
sg26
F81.0
sbs(g8
S'contains(two)'
p707
tp708
g0
(g14
g2
Ntp709
Rp710
(dp711
g18
F0.5
sg19
I80
sg20
g21
((dp712
I00
I77
sI01
I3
stp713
Rp714
sg25
I2
sg26
F81.0
sbs(g9
S'contains(")'
p715
tp716
g0
(g14
g2
Ntp717
Rp718
(dp719
g18
F0.5
sg19
I80
sg20
g21
((dp720
I00
I80
stp721
Rp722
sg25
I2
sg26
F81.0
sbs(g9
S'contains(about)'
p723
tp724
g0
(g14
g2
Ntp725
Rp726
(dp727
g18
F0.5
sg19
I80
sg20
g21
((dp728
I00
I73
sI01
I7
stp729
Rp730
sg25
I2
sg26
F81.0
sbs(g9
S'contains(more)'
p731
tp732
g0
(g14
g2
Ntp733
Rp734
(dp735
g18
F0.5
sg19
I80
sg20
g21
((dp736
I00
I74
sI01
I6
stp737
Rp738
sg25
I2
sg26
F81.0
sbs(g8
S'contains(at)'
p739
tp740
g0
(g14
g2
Ntp741
Rp742
(dp743
g18
F0.5
sg19
I80
sg20
g21
((dp744
I00
I74
sI01
I6
stp745
Rp746
sg25
I2
sg26
F81.0
sbs(g9
S'contains(only)'
p747
tp748
g0
(g14
g2
Ntp749
Rp750
(dp751
g18
F0.5
sg19
I80
sg20
g21
((dp752
I00
I76
sI01
I4
stp753
Rp754
sg25
I2
sg26
F81.0
sbs(g8
S'contains(to)'
p755
tp756
g0
(g14
g2
Ntp757
Rp758
(dp759
g18
F0.5
sg19
I80
sg20
g21
((dp760
I00
I43
sI01
I37
stp761
Rp762
sg25
I2
sg26
F81.0
sbs(g8
S'contains(she)'
p763
tp764
g0
(g14
g2
Ntp765
Rp766
(dp767
g18
F0.5
sg19
I80
sg20
g21
((dp768
I00
I76
sI01
I4
stp769
Rp770
sg25
I2
sg26
F81.0
sbs(g8
S'contains(own)'
p771
tp772
g0
(g14
g2
Ntp773
Rp774
(dp775
g18
F0.5
sg19
I80
sg20
g21
((dp776
I00
I77
sI01
I3
stp777
Rp778
sg25
I2
sg26
F81.0
sbs(g9
S'contains(all)'
p779
tp780
g0
(g14
g2
Ntp781
Rp782
(dp783
g18
F0.5
sg19
I80
sg20
g21
((dp784
I00
I76
sI01
I4
stp785
Rp786
sg25
I2
sg26
F81.0
sbs(g9
S'contains(out)'
p787
tp788
g0
(g14
g2
Ntp789
Rp790
(dp791
g18
F0.5
sg19
I80
sg20
g21
((dp792
I00
I78
sI01
I2
stp793
Rp794
sg25
I2
sg26
F81.0
sbs(g8
S'contains(through)'
p795
tp796
g0
(g14
g2
Ntp797
Rp798
(dp799
g18
F0.5
sg19
I80
sg20
g21
((dp800
I00
I79
sI01
I1
stp801
Rp802
sg25
I2
sg26
F81.0
sbs(g8
S'contains(are)'
p803
tp804
g0
(g14
g2
Ntp805
Rp806
(dp807
g18
F0.5
sg19
I80
sg20
g21
((dp808
I00
I74
sI01
I6
stp809
Rp810
sg25
I2
sg26
F81.0
sbs(g9
S'contains(make)'
p811
tp812
g0
(g14
g2
Ntp813
Rp814
(dp815
g18
F0.5
sg19
I80
sg20
g21
((dp816
I00
I76
sI01
I4
stp817
Rp818
sg25
I2
sg26
F81.0
sbs(g9
S'contains(()'
p819
tp820
g0
(g14
g2
Ntp821
Rp822
(dp823
g18
F0.5
sg19
I80
sg20
g21
((dp824
I00
I77
sI01
I3
stp825
Rp826
sg25
I2
sg26
F81.0
sbs(g8
S'contains(look)'
p827
tp828
g0
(g14
g2
Ntp829
Rp830
(dp831
g18
F0.5
sg19
I80
sg20
g21
((dp832
I00
I78
sI01
I2
stp833
Rp834
sg25
I2
sg26
F81.0
sbs(g9
S'contains(their)'
p835
tp836
g0
(g14
g2
Ntp837
Rp838
(dp839
g18
F0.5
sg19
I80
sg20
g21
((dp840
I00
I76
sI01
I4
stp841
Rp842
sg25
I2
sg26
F81.0
sbs(g9
S'contains(where)'
p843
tp844
g0
(g14
g2
Ntp845
Rp846
(dp847
g18
F0.5
sg19
I80
sg20
g21
((dp848
I00
I76
sI01
I4
stp849
Rp850
sg25
I2
sg26
F81.0
sbs(g8
S'contains(he)'
p851
tp852
g0
(g14
g2
Ntp853
Rp854
(dp855
g18
F0.5
sg19
I80
sg20
g21
((dp856
I00
I68
sI01
I12
stp857
Rp858
sg25
I2
sg26
F81.0
sbs(g9
S'contains(by)'
p859
tp860
g0
(g14
g2
Ntp861
Rp862
(dp863
g18
F0.5
sg19
I80
sg20
g21
((dp864
I00
I73
sI01
I7
stp865
Rp866
sg25
I2
sg26
F81.0
sbs(g8
S'contains(when)'
p867
tp868
g0
(g14
g2
Ntp869
Rp870
(dp871
g18
F0.5
sg19
I80
sg20
g21
((dp872
I00
I76
sI01
I4
stp873
Rp874
sg25
I2
sg26
F81.0
sbs(g8
S'contains(all)'
p875
tp876
g0
(g14
g2
Ntp877
Rp878
(dp879
g18
F0.5
sg19
I80
sg20
g21
((dp880
I00
I76
sI01
I4
stp881
Rp882
sg25
I2
sg26
F81.0
sbs(g9
S'contains(be)'
p883
tp884
g0
(g14
g2
Ntp885
Rp886
(dp887
g18
F0.5
sg19
I80
sg20
g21
((dp888
I00
I74
sI01
I6
stp889
Rp890
sg25
I2
sg26
F81.0
sbs(g8
S'contains(much)'
p891
tp892
g0
(g14
g2
Ntp893
Rp894
(dp895
g18
F0.5
sg19
I80
sg20
g21
((dp896
I00
I77
sI01
I3
stp897
Rp898
sg25
I2
sg26
F81.0
sbs(g8
S'contains(this)'
p899
tp900
g0
(g14
g2
Ntp901
Rp902
(dp903
g18
F0.5
sg19
I80
sg20
g21
((dp904
I00
I73
sI01
I7
stp905
Rp906
sg25
I2
sg26
F81.0
sbs(g8
S'contains(even)'
p907
tp908
g0
(g14
g2
Ntp909
Rp910
(dp911
g18
F0.5
sg19
I80
sg20
g21
((dp912
I00
I80
stp913
Rp914
sg25
I2
sg26
F81.0
sbs(g9
S'contains(if)'
p915
tp916
g0
(g14
g2
Ntp917
Rp918
(dp919
g18
F0.5
sg19
I80
sg20
g21
((dp920
I00
I75
sI01
I5
stp921
Rp922
sg25
I2
sg26
F81.0
sbs(g8
S'contains(")'
p923
tp924
g0
(g14
g2
Ntp925
Rp926
(dp927
g18
F0.5
sg19
I80
sg20
g21
((dp928
I00
I72
sI01
I8
stp929
Rp930
sg25
I2
sg26
F81.0
sbs(g9
S'contains(than)'
p931
tp932
g0
(g14
g2
Ntp933
Rp934
(dp935
g18
F0.5
sg19
I80
sg20
g21
((dp936
I00
I77
sI01
I3
stp937
Rp938
sg25
I2
sg26
F81.0
sbs(g8
S"contains(there's)"
p939
tp940
g0
(g14
g2
Ntp941
Rp942
(dp943
g18
F0.5
sg19
I80
sg20
g21
((dp944
I00
I78
sI01
I2
stp945
Rp946
sg25
I2
sg26
F81.0
sbs(g8
S'contains(only)'
p947
tp948
g0
(g14
g2
Ntp949
Rp950
(dp951
g18
F0.5
sg19
I80
sg20
g21
((dp952
I00
I75
sI01
I5
stp953
Rp954
sg25
I2
sg26
F81.0
sbs(g9
S'contains(two)'
p955
tp956
g0
(g14
g2
Ntp957
Rp958
(dp959
g18
F0.5
sg19
I80
sg20
g21
((dp960
I00
I79
sI01
I1
stp961
Rp962
sg25
I2
sg26
F81.0
sbs(g8
S'contains(more)'
p963
tp964
g0
(g14
g2
Ntp965
Rp966
(dp967
g18
F0.5
sg19
I80
sg20
g21
((dp968
I00
I79
sI01
I1
stp969
Rp970
sg25
I2
sg26
F81.0
sbs(g8
S'contains(and)'
p971
tp972
g0
(g14
g2
Ntp973
Rp974
(dp975
g18
F0.5
sg19
I80
sg20
g21
((dp976
I00
I39
sI01
I41
stp977
Rp978
sg25
I2
sg26
F81.0
sbs(g8
S'contains(be)'
p979
tp980
g0
(g14
g2
Ntp981
Rp982
(dp983
g18
F0.5
sg19
I80
sg20
g21
((dp984
I00
I77
sI01
I3
stp985
Rp986
sg25
I2
sg26
F81.0
sbs(g8
S'contains(life)'
p987
tp988
g0
(g14
g2
Ntp989
Rp990
(dp991
g18
F0.5
sg19
I80
sg20
g21
((dp992
I00
I73
sI01
I7
stp993
Rp994
sg25
I2
sg26
F81.0
sbs(g8
S'contains(:)'
p995
tp996
g0
(g14
g2
Ntp997
Rp998
(dp999
g18
F0.5
sg19
I80
sg20
g21
((dp1000
I00
I75
sI01
I5
stp1001
Rp1002
sg25
I2
sg26
F81.0
sbs(g9
S'contains(not)'
p1003
tp1004
g0
(g14
g2
Ntp1005
Rp1006
(dp1007
g18
F0.5
sg19
I80
sg20
g21
((dp1008
I00
I77
sI01
I3
stp1009
Rp1010
sg25
I2
sg26
F81.0
sbs(g9
S'contains(other)'
p1011
tp1012
g0
(g14
g2
Ntp1013
Rp1014
(dp1015
g18
F0.5
sg19
I80
sg20
g21
((dp1016
I00
I78
sI01
I2
stp1017
Rp1018
sg25
I2
sg26
F81.0
sbs(g9
S'contains(but)'
p1019
tp1020
g0
(g14
g2
Ntp1021
Rp1022
(dp1023
g18
F0.5
sg19
I80
sg20
g21
((dp1024
I00
I68
sI01
I12
stp1025
Rp1026
sg25
I2
sg26
F81.0
sbs(g8
S'contains(has)'
p1027
tp1028
g0
(g14
g2
Ntp1029
Rp1030
(dp1031
g18
F0.5
sg19
I80
sg20
g21
((dp1032
I00
I76
sI01
I4
stp1033
Rp1034
sg25
I2
sg26
F81.0
sbs(g9
S'contains(have)'
p1035
tp1036
g0
(g14
g2
Ntp1037
Rp1038
(dp1039
g18
F0.5
sg19
I80
sg20
g21
((dp1040
I00
I75
sI01
I5
stp1041
Rp1042
sg25
I2
sg26
F81.0
sbs(g8
S'contains(from)'
p1043
tp1044
g0
(g14
g2
Ntp1045
Rp1046
(dp1047
g18
F0.5
sg19
I80
sg20
g21
((dp1048
I00
I70
sI01
I10
stp1049
Rp1050
sg25
I2
sg26
F81.0
sbs(g9
S'contains(;)'
p1051
tp1052
g0
(g14
g2
Ntp1053
Rp1054
(dp1055
g18
F0.5
sg19
I80
sg20
g21
((dp1056
I00
I80
stp1057
Rp1058
sg25
I2
sg26
F81.0
sbs(g9
S'contains(look)'
p1059
tp1060
g0
(g14
g2
Ntp1061
Rp1062
(dp1063
g18
F0.5
sg19
I80
sg20
g21
((dp1064
I00
I76
sI01
I4
stp1065
Rp1066
sg25
I2
sg26
F81.0
sbs(g8
S'contains(so)'
p1067
tp1068
g0
(g14
g2
Ntp1069
Rp1070
(dp1071
g18
F0.5
sg19
I80
sg20
g21
((dp1072
I00
I76
sI01
I4
stp1073
Rp1074
sg25
I2
sg26
F81.0
sbs(g8
S'contains(you)'
p1075
tp1076
g0
(g14
g2
Ntp1077
Rp1078
(dp1079
g18
F0.5
sg19
I80
sg20
g21
((dp1080
I00
I80
stp1081
Rp1082
sg25
I2
sg26
F81.0
sbs(g8
S'contains(what)'
p1083
tp1084
g0
(g14
g2
Ntp1085
Rp1086
(dp1087
g18
F0.5
sg19
I80
sg20
g21
((dp1088
I00
I75
sI01
I5
stp1089
Rp1090
sg25
I2
sg26
F81.0
sbs(g8
S'contains(it)'
p1091
tp1092
g0
(g14
g2
Ntp1093
Rp1094
(dp1095
g18
F0.5
sg19
I80
sg20
g21
((dp1096
I00
I73
sI01
I7
stp1097
Rp1098
sg25
I2
sg26
F81.0
sbs(g8
S'contains(as)'
p1099
tp1100
g0
(g14
g2
Ntp1101
Rp1102
(dp1103
g18
F0.5
sg19
I80
sg20
g21
((dp1104
I00
I69
sI01
I11
stp1105
Rp1106
sg25
I2
sg26
F81.0
sbs(g9
S'contains(are)'
p1107
tp1108
g0
(g14
g2
Ntp1109
Rp1110
(dp1111
g18
F0.5
sg19
I80
sg20
g21
((dp1112
I00
I76
sI01
I4
stp1113
Rp1114
sg25
I2
sg26
F81.0
sbs(g9
S'contains(can)'
p1115
tp1116
g0
(g14
g2
Ntp1117
Rp1118
(dp1119
g18
F0.5
sg19
I80
sg20
g21
((dp1120
I00
I76
sI01
I4
stp1121
Rp1122
sg25
I2
sg26
F81.0
sbs(g8
S'contains(love)'
p1123
tp1124
g0
(g14
g2
Ntp1125
Rp1126
(dp1127
g18
F0.5
sg19
I80
sg20
g21
((dp1128
I00
I77
sI01
I3
stp1129
Rp1130
sg25
I2
sg26
F81.0
sbs(g8
S'contains(film)'
p1131
tp1132
g0
(g14
g2
Ntp1133
Rp1134
(dp1135
g18
F0.5
sg19
I80
sg20
g21
((dp1136
I00
I75
sI01
I5
stp1137
Rp1138
sg25
I2
sg26
F81.0
sbs(g8
S'contains(if)'
p1139
tp1140
g0
(g14
g2
Ntp1141
Rp1142
(dp1143
g18
F0.5
sg19
I80
sg20
g21
((dp1144
I00
I79
sI01
I1
stp1145
Rp1146
sg25
I2
sg26
F81.0
sbs(g8
S'contains(into)'
p1147
tp1148
g0
(g14
g2
Ntp1149
Rp1150
(dp1151
g18
F0.5
sg19
I80
sg20
g21
((dp1152
I00
I75
sI01
I5
stp1153
Rp1154
sg25
I2
sg26
F81.0
sbs(g9
S'contains(its)'
p1155
tp1156
g0
(g14
g2
Ntp1157
Rp1158
(dp1159
g18
F0.5
sg19
I80
sg20
g21
((dp1160
I00
I73
sI01
I7
stp1161
Rp1162
sg25
I2
sg26
F81.0
sbs(g8
S'contains(other)'
p1163
tp1164
g0
(g14
g2
Ntp1165
Rp1166
(dp1167
g18
F0.5
sg19
I80
sg20
g21
((dp1168
I00
I77
sI01
I3
stp1169
Rp1170
sg25
I2
sg26
F81.0
sbs(g8
S'contains(can)'
p1171
tp1172
g0
(g14
g2
Ntp1173
Rp1174
(dp1175
g18
F0.5
sg19
I80
sg20
g21
((dp1176
I00
I78
sI01
I2
stp1177
Rp1178
sg25
I2
sg26
F81.0
sbs(g9
S'contains(this)'
p1179
tp1180
g0
(g14
g2
Ntp1181
Rp1182
(dp1183
g18
F0.5
sg19
I80
sg20
g21
((dp1184
I00
I71
sI01
I9
stp1185
Rp1186
sg25
I2
sg26
F81.0
sbs(g8
S'contains(her)'
p1187
tp1188
g0
(g14
g2
Ntp1189
Rp1190
(dp1191
g18
F0.5
sg19
I80
sg20
g21
((dp1192
I00
I67
sI01
I13
stp1193
Rp1194
sg25
I2
sg26
F81.0
sbs(g9
S'contains(will)'
p1195
tp1196
g0
(g14
g2
Ntp1197
Rp1198
(dp1199
g18
F0.5
sg19
I80
sg20
g21
((dp1200
I00
I76
sI01
I4
stp1201
Rp1202
sg25
I2
sg26
F81.0
sbs(g9
S'contains(her)'
p1203
tp1204
g0
(g14
g2
Ntp1205
Rp1206
(dp1207
g18
F0.5
sg19
I80
sg20
g21
((dp1208
I00
I78
sI01
I2
stp1209
Rp1210
sg25
I2
sg26
F81.0
sbs(g8
S'contains(they)'
p1211
tp1212
g0
(g14
g2
Ntp1213
Rp1214
(dp1215
g18
F0.5
sg19
I80
sg20
g21
((dp1216
I00
I70
sI01
I10
stp1217
Rp1218
sg25
I2
sg26
F81.0
sbs(g9
S'contains(both)'
p1219
tp1220
g0
(g14
g2
Ntp1221
Rp1222
(dp1223
g18
F0.5
sg19
I80
sg20
g21
((dp1224
I00
I76
sI01
I4
stp1225
Rp1226
sg25
I2
sg26
F81.0
sbs(g8
S'contains(where)'
p1227
tp1228
g0
(g14
g2
Ntp1229
Rp1230
(dp1231
g18
F0.5
sg19
I80
sg20
g21
((dp1232
I00
I78
sI01
I2
stp1233
Rp1234
sg25
I2
sg26
F81.0
sbs(g8
S'contains(made)'
p1235
tp1236
g0
(g14
g2
Ntp1237
Rp1238
(dp1239
g18
F0.5
sg19
I80
sg20
g21
((dp1240
I00
I77
sI01
I3
stp1241
Rp1242
sg25
I2
sg26
F81.0
sbs(g9
S'contains(into)'
p1243
tp1244
g0
(g14
g2
Ntp1245
Rp1246
(dp1247
g18
F0.5
sg19
I80
sg20
g21
((dp1248
I00
I77
sI01
I3
stp1249
Rp1250
sg25
I2
sg26
F81.0
sbs(g8
S'contains(some)'
p1251
tp1252
g0
(g14
g2
Ntp1253
Rp1254
(dp1255
g18
F0.5
sg19
I80
sg20
g21
((dp1256
I00
I78
sI01
I2
stp1257
Rp1258
sg25
I2
sg26
F81.0
sbs(g8
S'contains(in)'
p1259
tp1260
g0
(g14
g2
Ntp1261
Rp1262
(dp1263
g18
F0.5
sg19
I80
sg20
g21
((dp1264
I00
I53
sI01
I27
stp1265
Rp1266
sg25
I2
sg26
F81.0
sbs(g9
S'contains(his)'
p1267
tp1268
g0
(g14
g2
Ntp1269
Rp1270
(dp1271
g18
F0.5
sg19
I80
sg20
g21
((dp1272
I00
I75
sI01
I5
stp1273
Rp1274
sg25
I2
sg26
F81.0
sbs(g9
S'contains(which)'
p1275
tp1276
g0
(g14
g2
Ntp1277
Rp1278
(dp1279
g18
F0.5
sg19
I80
sg20
g21
((dp1280
I00
I79
sI01
I1
stp1281
Rp1282
sg25
I2
sg26
F81.0
sbs(g9
S'contains(an)'
p1283
tp1284
g0
(g14
g2
Ntp1285
Rp1286
(dp1287
g18
F0.5
sg19
I80
sg20
g21
((dp1288
I00
I73
sI01
I7
stp1289
Rp1290
sg25
I2
sg26
F81.0
sbs(g8
S'contains(,)'
p1291
tp1292
g0
(g14
g2
Ntp1293
Rp1294
(dp1295
g18
F0.5
sg19
I80
sg20
g21
((dp1296
I00
I21
sI01
I59
stp1297
Rp1298
sg25
I2
sg26
F81.0
sbs(g9
S'contains(he)'
p1299
tp1300
g0
(g14
g2
Ntp1301
Rp1302
(dp1303
g18
F0.5
sg19
I80
sg20
g21
((dp1304
I00
I76
sI01
I4
stp1305
Rp1306
sg25
I2
sg26
F81.0
sbs(g8
S'contains(on)'
p1307
tp1308
g0
(g14
g2
Ntp1309
Rp1310
(dp1311
g18
F0.5
sg19
I80
sg20
g21
((dp1312
I00
I64
sI01
I16
stp1313
Rp1314
sg25
I2
sg26
F81.0
sbs(g8
S'contains(--)'
p1315
tp1316
g0
(g14
g2
Ntp1317
Rp1318
(dp1319
g18
F0.5
sg19
I80
sg20
g21
((dp1320
I00
I80
stp1321
Rp1322
sg25
I2
sg26
F81.0
sbs(g9
S'contains(is)'
p1323
tp1324
g0
(g14
g2
Ntp1325
Rp1326
(dp1327
g18
F0.5
sg19
I80
sg20
g21
((dp1328
I00
I55
sI01
I25
stp1329
Rp1330
sg25
I2
sg26
F81.0
sbs(g9
S'contains(what)'
p1331
tp1332
g0
(g14
g2
Ntp1333
Rp1334
(dp1335
g18
F0.5
sg19
I80
sg20
g21
((dp1336
I00
I77
sI01
I3
stp1337
Rp1338
sg25
I2
sg26
F81.0
sbs(g8
S'contains(its)'
p1339
tp1340
g0
(g14
g2
Ntp1341
Rp1342
(dp1343
g18
F0.5
sg19
I80
sg20
g21
((dp1344
I00
I79
sI01
I1
stp1345
Rp1346
sg25
I2
sg26
F81.0
sbssS'_label_probdist'
p1347
g0
(g14
g2
Ntp1348
Rp1349
(dp1350
g18
F0.5
sg19
I160
sg20
g21
((dp1351
g9
I80
sg8
I80
stp1352
Rp1353
sg25
I2
sg26
F161.0
sbsb.